target datalayout = "e-m:e-p270:32:32-p271:32:32-p272:64:64-i64:64-i128:128-f80:128-n8:16:32:64-S128"
target triple = "x86_64-unknown-linux-gnu"

%struct.ecc_set_type = type { i32, i32, ptr, ptr, ptr, ptr, ptr, ptr, ptr, ptr, i32, i32, i32 }

; Function Attrs: nounwind uwtable
define i32 @wc_ecc_is_valid_idx(i32 noundef %n) #0 {
entry:
  %retval = alloca i32, align 4
  %n.addr = alloca i32, align 4
  %x = alloca i32, align 4
  store i32 %n, ptr %n.addr, align 4
  %0 = load i32, ptr %n.addr, align 4
  %cmp = icmp sge i32 %0, 6
  br i1 %cmp, label %if.then, label %if.end

if.then:                                          ; preds = %entry
  store i32 0, ptr %retval, align 4
  br label %return

if.end:                                           ; preds = %entry
  store i32 0, ptr %x, align 4
  br label %for.cond

for.cond:                                         ; preds = %for.inc, %if.end
  %1 = load i32, ptr %x, align 4
  %idxprom = sext i32 %1 to i64
  %arrayidx = getelementptr inbounds [6 x %struct.ecc_set_type], ptr @ecc_sets, i64 0, i64 %idxprom
  %size = getelementptr inbounds %struct.ecc_set_type, ptr %arrayidx, i32 0, i32 0
  %2 = load i32, ptr %size, align 8
  %cmp1 = icmp ne i32 %2, 0
  br i1 %cmp1, label %for.body, label %for.end

for.body:                                         ; preds = %for.cond
  br label %for.inc

for.inc:                                          ; preds = %for.body
  %3 = load i32, ptr %x, align 4
  %inc = add nsw i32 %3, 1
  store i32 %inc, ptr %x, align 4
  br label %for.cond, !llvm.loop !12

for.end:                                          ; preds = %for.cond
  %4 = load i32, ptr %n.addr, align 4
  %cmp2 = icmp sge i32 %4, -1
  br i1 %cmp2, label %land.lhs.true, label %if.end5

land.lhs.true:                                    ; preds = %for.end
  %5 = load i32, ptr %n.addr, align 4
  %6 = load i32, ptr %x, align 4
  %cmp3 = icmp slt i32 %5, %6
  br i1 %cmp3, label %if.then4, label %if.end5

if.then4:                                         ; preds = %land.lhs.true
  store i32 1, ptr %retval, align 4
  br label %return

if.end5:                                          ; preds = %land.lhs.true, %for.end
  store i32 0, ptr %retval, align 4
  br label %return

return:                                           ; preds = %if.end5, %if.then4, %if.then
  %7 = load i32, ptr %retval, align 4
  ret i32 %7
}

; Function Attrs: nounwind uwtable
define i32 @wc_ecc_get_curve_id(i32 noundef %curve_idx) #0 {
entry:
  %retval = alloca i32, align 4
  %curve_idx.addr = alloca i32, align 4
  store i32 %curve_idx, ptr %curve_idx.addr, align 4
  %0 = load i32, ptr %curve_idx.addr, align 4
  %call = call i32 @wc_ecc_is_valid_idx(i32 noundef %0)
  %tobool = icmp ne i32 %call, 0
  br i1 %tobool, label %if.then, label %if.end

if.then:                                          ; preds = %entry
  %1 = load i32, ptr %curve_idx.addr, align 4
  %idxprom = sext i32 %1 to i64
  %arrayidx = getelementptr inbounds [6 x %struct.ecc_set_type], ptr @ecc_sets, i64 0, i64 %idxprom
  %id = getelementptr inbounds %struct.ecc_set_type, ptr %arrayidx, i32 0, i32 1
  %2 = load i32, ptr %id, align 4
  store i32 %2, ptr %retval, align 4
  br label %return

if.end:                                           ; preds = %entry
  store i32 -1, ptr %retval, align 4
  br label %return

return:                                           ; preds = %if.end, %if.then
  %3 = load i32, ptr %retval, align 4
  ret i32 %3
}