; Function Attrs: mustprogress nofree norecurse nosync nounwind willreturn memory(none) uwtable
define i32 @wc_ecc_get_curve_id(i32 noundef %curve_idx) local_unnamed_addr #5 {
entry:
  %0 = add i32 %curve_idx, -5
  %narrow.i = icmp ult i32 %0, -6
  br i1 %narrow.i, label %return, label %if.then

if.then:                                          ; preds = %entry
  %idxprom = sext i32 %curve_idx to i64
  %id = getelementptr inbounds [6 x %struct.ecc_set_type], ptr @ecc_sets, i64 0, i64 %idxprom, i32 1
  %1 = load i32, ptr %id, align 4
  br label %return

return:                                           ; preds = %entry, %if.then
  %retval.0 = phi i32 [ %1, %if.then ], [ -1, %entry ]
  ret i32 %retval.0
}